(lp0
I200
a(lp1
(S'content-length'
p2
S'613'
p3
tp4
a(S'accept-ranges'
p5
S'bytes'
p6
tp7
a(S'server'
p8
S'Apache/2.2'
p9
tp10
a(S'last-modified'
p11
S'Fri, 27 Sep 2013 01:45:05 GMT'
p12
tp13
a(S'connection'
p14
S'close'
p15
tp16
a(S'etag'
p17
S'"3200d1-265-4e753a2b85c3d"'
p18
tp19
a(S'date'
p20
S'Thu, 26 Nov 2015 21:07:24 GMT'
p21
tp22
a(S'content-type'
p23
S'text/javascript'
p24
tp25
aaS'var tests = [ "3d-cube", "3d-morph", "3d-raytrace", "access-binary-trees", "access-fannkuch", "access-nbody", "access-nsieve", "bitops-3bit-bits-in-byte", "bitops-bits-in-byte", "bitops-bitwise-and", "bitops-nsieve-bits", "controlflow-recursive", "crypto-aes", "crypto-md5", "crypto-sha1", "date-format-tofte", "date-format-xparb", "math-cordic", "math-partial-sums", "math-spectral-norm", "regexp-dna", "string-base64", "string-fasta", "string-tagcloud", "string-unpack-code", "string-validate-input" ];\nvar categories = [ "3d", "access", "bitops", "controlflow", "crypto", "date", "math", "regexp", "string" ];\n'
p26
a.